target datalayout = "e-m:e-p270:32:32-p271:32:32-p272:64:64-i64:64-i128:128-f80:128-n8:16:32:64-S128"
target triple = "x86_64-pc-linux-gnu"

%struct.H5G_link_table_t = type { i64, ptr }
%struct.H5O_link_t = type { i32, i8, i64, i32, ptr, %union.anon }
%union.anon = type { %struct.H5O_link_ud_t }
%struct.H5O_link_ud_t = type { ptr, i64 }
%struct.H5G_iter_rm_t = type { ptr, ptr, ptr }
%struct.H5O_loc_t = type { ptr, i64, i8 }

@H5G_init_g = external global i8, align 1
@H5_libterm_g = external global i8, align 1
@.str = private unnamed_addr constant [104 x i8] c"generated/home/dtcxzyw/WorkSpace/Projects/compilers/llvm-opt-benchmark/bench/hdf5/hdf5/src/H5Gcompact.c\00", align 1
@H5E_SYM_g = external global i64, align 8
@H5E_CANTINIT_g = external global i64, align 8
@.str.2 = private unnamed_addr constant [32 x i8] c"can't create link message table\00", align 1
@H5E_ARGS_g = external global i64, align 8
@.str.3 = private unnamed_addr constant [19 x i8] c"index out of bound\00", align 1
@H5E_CANTFREE_g = external global i64, align 8
@.str.4 = private unnamed_addr constant [29 x i8] c"unable to release link table\00", align 1
@H5E_CANTDELETE_g = external global i64, align 8
@.str.5 = private unnamed_addr constant [30 x i8] c"unable to delete link message\00", align 1
@__func__.H5G__compact_remove_by_idx = private unnamed_addr constant [27 x i8] c"H5G__compact_remove_by_idx\00", align 1
@H5E_BADRANGE_g = external global i64, align 8

; Function Attrs: nounwind uwtable
define i32 @H5G__compact_remove_by_idx(ptr noundef %0, ptr noundef %1, ptr noundef %2, i32 noundef %3, i32 noundef %4, i64 noundef %5) #0 {
  %7 = alloca ptr, align 8
  %8 = alloca ptr, align 8
  %9 = alloca ptr, align 8
  %10 = alloca i32, align 4
  %11 = alloca i32, align 4
  %12 = alloca i64, align 8
  %13 = alloca %struct.H5G_link_table_t, align 8
  %14 = alloca %struct.H5G_iter_rm_t, align 8
  %15 = alloca i32, align 4
  %16 = alloca i8, align 1
  store ptr %0, ptr %7, align 8, !tbaa !3
  store ptr %1, ptr %8, align 8, !tbaa !18
  store ptr %2, ptr %9, align 8, !tbaa !38
  store i32 %3, ptr %10, align 4, !tbaa !10
  store i32 %4, ptr %11, align 4, !tbaa !10
  store i64 %5, ptr %12, align 8, !tbaa !16
  call void @llvm.lifetime.start.p0(i64 16, ptr %13) #8
  call void @llvm.memset.p0.i64(ptr align 8 %13, i8 0, i64 16, i1 false)
  call void @llvm.lifetime.start.p0(i64 24, ptr %14) #8
  call void @llvm.lifetime.start.p0(i64 4, ptr %15) #8
  store i32 0, ptr %15, align 4, !tbaa !10
  call void @llvm.lifetime.start.p0(i64 1, ptr %16) #8
  store i8 0, ptr %16, align 1, !tbaa !12
  %17 = load i8, ptr @H5G_init_g, align 1, !tbaa !12, !range !14, !noundef !15
  %18 = trunc i8 %17 to i1
  br i1 %18, label %23, label %19

19:                                               ; preds = %6
  %20 = load i8, ptr @H5_libterm_g, align 1, !tbaa !12, !range !14, !noundef !15
  %21 = trunc i8 %20 to i1
  %22 = xor i1 %21, true
  br label %23

23:                                               ; preds = %19, %6
  %24 = phi i1 [ true, %6 ], [ %22, %19 ]
  %25 = xor i1 %24, true
  %26 = xor i1 %25, true
  %27 = zext i1 %26 to i32
  %28 = sext i32 %27 to i64
  %29 = call i64 @llvm.expect.i64(i64 %28, i64 1)
  %30 = icmp ne i64 %29, 0
  br i1 %30, label %31, label %142

31:                                               ; preds = %23
  %32 = load ptr, ptr %7, align 8, !tbaa !3
  %33 = load ptr, ptr %8, align 8, !tbaa !18
  %34 = load i32, ptr %10, align 4, !tbaa !10
  %35 = load i32, ptr %11, align 4, !tbaa !10
  %36 = call i32 @H5G__compact_build_table(ptr noundef %32, ptr noundef %33, i32 noundef %34, i32 noundef %35, ptr noundef %13)
  %37 = icmp slt i32 %36, 0
  br i1 %37, label %38, label %57

38:                                               ; preds = %31
  br label %39

39:                                               ; preds = %38
  br label %40

40:                                               ; preds = %39
  br label %41

41:                                               ; preds = %40
  %42 = load i64, ptr @H5E_SYM_g, align 8, !tbaa !16
  %43 = load i64, ptr @H5E_CANTINIT_g, align 8, !tbaa !16
  %44 = call i32 (ptr, ptr, i32, i64, i64, ptr, ...) @H5E_printf_stack(ptr noundef @.str, ptr noundef @__func__.H5G__compact_remove_by_idx, i32 noundef 328, i64 noundef %42, i64 noundef %43, ptr noundef @.str.2)
  br label %45

45:                                               ; preds = %41
  br label %46

46:                                               ; preds = %45
  store i8 1, ptr %16, align 1, !tbaa !12
  %47 = load i8, ptr %16, align 1, !tbaa !12, !range !14, !noundef !15
  %48 = trunc i8 %47 to i1
  %49 = zext i1 %48 to i8
  store i8 %49, ptr %16, align 1, !tbaa !12
  br label %50

50:                                               ; preds = %46
  br label %51

51:                                               ; preds = %50
  br label %52

52:                                               ; preds = %51
  store i32 -1, ptr %15, align 4, !tbaa !10
  br label %118

53:                                               ; No predecessors!
  br label %54

54:                                               ; preds = %53
  br label %55

55:                                               ; preds = %54
  br label %56

56:                                               ; preds = %55
  br label %57

57:                                               ; preds = %56, %31
  %58 = load i64, ptr %12, align 8, !tbaa !16
  %59 = getelementptr inbounds nuw %struct.H5G_link_table_t, ptr %13, i32 0, i32 0
  %60 = load i64, ptr %59, align 8, !tbaa !24
  %61 = icmp uge i64 %58, %60
  br i1 %61, label %62, label %81

62:                                               ; preds = %57
  br label %63

63:                                               ; preds = %62
  br label %64

64:                                               ; preds = %63
  br label %65

65:                                               ; preds = %64
  %66 = load i64, ptr @H5E_ARGS_g, align 8, !tbaa !16
  %67 = load i64, ptr @H5E_BADRANGE_g, align 8, !tbaa !16
  %68 = call i32 (ptr, ptr, i32, i64, i64, ptr, ...) @H5E_printf_stack(ptr noundef @.str, ptr noundef @__func__.H5G__compact_remove_by_idx, i32 noundef 332, i64 noundef %66, i64 noundef %67, ptr noundef @.str.3)
  br label %69

69:                                               ; preds = %65
  br label %70

70:                                               ; preds = %69
  store i8 1, ptr %16, align 1, !tbaa !12
  %71 = load i8, ptr %16, align 1, !tbaa !12, !range !14, !noundef !15
  %72 = trunc i8 %71 to i1
  %73 = zext i1 %72 to i8
  store i8 %73, ptr %16, align 1, !tbaa !12
  br label %74

74:                                               ; preds = %70
  br label %75

75:                                               ; preds = %74
  br label %76

76:                                               ; preds = %75
  store i32 -1, ptr %15, align 4, !tbaa !10
  br label %118

77:                                               ; No predecessors!
  br label %78

78:                                               ; preds = %77
  br label %79

79:                                               ; preds = %78
  br label %80

80:                                               ; preds = %79
  br label %81

81:                                               ; preds = %80, %57
  %82 = load ptr, ptr %7, align 8, !tbaa !3
  %83 = getelementptr inbounds nuw %struct.H5O_loc_t, ptr %82, i32 0, i32 0
  %84 = load ptr, ptr %83, align 8, !tbaa !40
  %85 = getelementptr inbounds nuw %struct.H5G_iter_rm_t, ptr %14, i32 0, i32 0
  store ptr %84, ptr %85, align 8, !tbaa !43
  %86 = load ptr, ptr %9, align 8, !tbaa !38
  %87 = getelementptr inbounds nuw %struct.H5G_iter_rm_t, ptr %14, i32 0, i32 1
  store ptr %86, ptr %87, align 8, !tbaa !45
  %88 = getelementptr inbounds nuw %struct.H5G_link_table_t, ptr %13, i32 0, i32 1
  %89 = load ptr, ptr %88, align 8, !tbaa !26
  %90 = load i64, ptr %12, align 8, !tbaa !16
  %91 = getelementptr inbounds nuw %struct.H5O_link_t, ptr %89, i64 %90
  %92 = getelementptr inbounds nuw %struct.H5O_link_t, ptr %91, i32 0, i32 4
  %93 = load ptr, ptr %92, align 8, !tbaa !27
  %94 = getelementptr inbounds nuw %struct.H5G_iter_rm_t, ptr %14, i32 0, i32 2
  store ptr %93, ptr %94, align 8, !tbaa !46
  %95 = load ptr, ptr %7, align 8, !tbaa !3
  %96 = call i32 @H5O_msg_remove_op(ptr noundef %95, i32 noundef 6, i32 noundef -2, ptr noundef @H5G__compact_remove_common_cb, ptr noundef %14, i1 noundef zeroext true)
  %97 = icmp slt i32 %96, 0
  br i1 %97, label %98, label %117

98:                                               ; preds = %81
  br label %99

99:                                               ; preds = %98
  br label %100

100:                                              ; preds = %99
  br label %101

101:                                              ; preds = %100
  %102 = load i64, ptr @H5E_SYM_g, align 8, !tbaa !16
  %103 = load i64, ptr @H5E_CANTDELETE_g, align 8, !tbaa !16
  %104 = call i32 (ptr, ptr, i32, i64, i64, ptr, ...) @H5E_printf_stack(ptr noundef @.str, ptr noundef @__func__.H5G__compact_remove_by_idx, i32 noundef 341, i64 noundef %102, i64 noundef %103, ptr noundef @.str.5)
  br label %105

105:                                              ; preds = %101
  br label %106

106:                                              ; preds = %105
  store i8 1, ptr %16, align 1, !tbaa !12
  %107 = load i8, ptr %16, align 1, !tbaa !12, !range !14, !noundef !15
  %108 = trunc i8 %107 to i1
  %109 = zext i1 %108 to i8
  store i8 %109, ptr %16, align 1, !tbaa !12
  br label %110

110:                                              ; preds = %106
  br label %111

111:                                              ; preds = %110
  br label %112

112:                                              ; preds = %111
  store i32 -1, ptr %15, align 4, !tbaa !10
  br label %118

113:                                              ; No predecessors!
  br label %114

114:                                              ; preds = %113
  br label %115

115:                                              ; preds = %114
  br label %116

116:                                              ; preds = %115
  br label %117

117:                                              ; preds = %116, %81
  br label %118

118:                                              ; preds = %117, %112, %76, %52
  %119 = getelementptr inbounds nuw %struct.H5G_link_table_t, ptr %13, i32 0, i32 1
  %120 = load ptr, ptr %119, align 8, !tbaa !26
  %121 = icmp ne ptr %120, null
  br i1 %121, label %122, label %141

122:                                              ; preds = %118
  %123 = call i32 @H5G__link_release_table(ptr noundef %13)
  %124 = icmp slt i32 %123, 0
  br i1 %124, label %125, label %141

125:                                              ; preds = %122
  br label %126

126:                                              ; preds = %125
  br label %127

127:                                              ; preds = %126
  br label %128

128:                                              ; preds = %127
  %129 = load i64, ptr @H5E_SYM_g, align 8, !tbaa !16
  %130 = load i64, ptr @H5E_CANTFREE_g, align 8, !tbaa !16
  %131 = call i32 (ptr, ptr, i32, i64, i64, ptr, ...) @H5E_printf_stack(ptr noundef @.str, ptr noundef @__func__.H5G__compact_remove_by_idx, i32 noundef 346, i64 noundef %129, i64 noundef %130, ptr noundef @.str.4)
  br label %132

132:                                              ; preds = %128
  br label %133

133:                                              ; preds = %132
  store i8 1, ptr %16, align 1, !tbaa !12
  %134 = load i8, ptr %16, align 1, !tbaa !12, !range !14, !noundef !15
  %135 = trunc i8 %134 to i1
  %136 = zext i1 %135 to i8
  store i8 %136, ptr %16, align 1, !tbaa !12
  br label %137

137:                                              ; preds = %133
  br label %138

138:                                              ; preds = %137
  store i32 -1, ptr %15, align 4, !tbaa !10
  br label %139

139:                                              ; preds = %138
  br label %140

140:                                              ; preds = %139
  br label %141

141:                                              ; preds = %140, %122, %118
  br label %142

142:                                              ; preds = %141, %23
  %143 = load i32, ptr %15, align 4, !tbaa !10
  call void @llvm.lifetime.end.p0(i64 1, ptr %16) #8
  call void @llvm.lifetime.end.p0(i64 4, ptr %15) #8
  call void @llvm.lifetime.end.p0(i64 24, ptr %14) #8
  call void @llvm.lifetime.end.p0(i64 16, ptr %13) #8
  ret i32 %143
}