; Function Attrs: nounwind uwtable
define range(i32 -1, 1) i32 @H5G__compact_remove_by_idx(ptr noundef %0, ptr noundef readonly captures(none) %1, ptr noundef %2, i32 noundef %3, i32 noundef %4, i64 noundef %5) local_unnamed_addr #0 {
  %7 = alloca %struct.H5G_link_table_t, align 8
  %8 = alloca %struct.H5G_iter_rm_t, align 8
  call void @llvm.lifetime.start.p0(i64 16, ptr nonnull %7) #8
  call void @llvm.memset.p0.i64(ptr noundef nonnull align 8 dereferenceable(16) %7, i8 0, i64 16, i1 false)
  call void @llvm.lifetime.start.p0(i64 24, ptr nonnull %8) #8
  %9 = load i8, ptr @H5G_init_g, align 1, !tbaa !3, !range !7, !noundef !8
  %10 = trunc nuw i8 %9 to i1
  %11 = load i8, ptr @H5_libterm_g, align 1, !range !7
  %12 = trunc nuw i8 %11 to i1
  %13 = xor i1 %12, true
  %14 = select i1 %10, i1 true, i1 %13
  br i1 %14, label %15, label %52, !prof !9

15:                                               ; preds = %6
  %16 = call fastcc i32 @H5G__compact_build_table(ptr noundef %0, ptr noundef %1, i32 noundef %3, i32 noundef %4, ptr noundef %7)
  %17 = icmp slt i32 %16, 0
  br i1 %17, label %18, label %22

18:                                               ; preds = %15
  %19 = load i64, ptr @H5E_SYM_g, align 8, !tbaa !10
  %20 = load i64, ptr @H5E_CANTINIT_g, align 8, !tbaa !10
  %21 = call i32 (ptr, ptr, i32, i64, i64, ptr, ...) @H5E_printf_stack(ptr noundef nonnull @.str, ptr noundef nonnull @__func__.H5G__compact_remove_by_idx, i32 noundef 328, i64 noundef %19, i64 noundef %20, ptr noundef nonnull @.str.2) #8
  br label %42

22:                                               ; preds = %15
  %23 = load i64, ptr %7, align 8, !tbaa !12
  %.not = icmp ult i64 %5, %23
  br i1 %.not, label %28, label %24

24:                                               ; preds = %22
  %25 = load i64, ptr @H5E_ARGS_g, align 8, !tbaa !10
  %26 = load i64, ptr @H5E_BADRANGE_g, align 8, !tbaa !10
  %27 = call i32 (ptr, ptr, i32, i64, i64, ptr, ...) @H5E_printf_stack(ptr noundef nonnull @.str, ptr noundef nonnull @__func__.H5G__compact_remove_by_idx, i32 noundef 332, i64 noundef %25, i64 noundef %26, ptr noundef nonnull @.str.3) #8
  br label %42

28:                                               ; preds = %22
  %29 = load ptr, ptr %0, align 8, !tbaa !29
  store ptr %29, ptr %8, align 8, !tbaa !32
  %30 = getelementptr inbounds nuw i8, ptr %8, i64 8
  store ptr %2, ptr %30, align 8, !tbaa !35
  %31 = getelementptr inbounds nuw i8, ptr %7, i64 8
  %32 = load ptr, ptr %31, align 8, !tbaa !16
  %33 = getelementptr inbounds nuw %struct.H5O_link_t, ptr %32, i64 %5, i32 4
  %34 = load ptr, ptr %33, align 8, !tbaa !17
  %35 = getelementptr inbounds nuw i8, ptr %8, i64 16
  store ptr %34, ptr %35, align 8, !tbaa !36
  %36 = call i32 @H5O_msg_remove_op(ptr noundef nonnull %0, i32 noundef 6, i32 noundef -2, ptr noundef nonnull @H5G__compact_remove_common_cb, ptr noundef nonnull %8, i1 noundef zeroext true) #8
  %37 = icmp slt i32 %36, 0
  br i1 %37, label %38, label %42

38:                                               ; preds = %28
  %39 = load i64, ptr @H5E_SYM_g, align 8, !tbaa !10
  %40 = load i64, ptr @H5E_CANTDELETE_g, align 8, !tbaa !10
  %41 = call i32 (ptr, ptr, i32, i64, i64, ptr, ...) @H5E_printf_stack(ptr noundef nonnull @.str, ptr noundef nonnull @__func__.H5G__compact_remove_by_idx, i32 noundef 341, i64 noundef %39, i64 noundef %40, ptr noundef nonnull @.str.5) #8
  br label %42

42:                                               ; preds = %28, %38, %24, %18
  %.1 = phi i32 [ -1, %18 ], [ -1, %24 ], [ -1, %38 ], [ 0, %28 ]
  %43 = getelementptr inbounds nuw i8, ptr %7, i64 8
  %44 = load ptr, ptr %43, align 8, !tbaa !16
  %.not14 = icmp eq ptr %44, null
  br i1 %.not14, label %52, label %45

45:                                               ; preds = %42
  %46 = call i32 @H5G__link_release_table(ptr noundef nonnull %7) #8
  %47 = icmp slt i32 %46, 0
  br i1 %47, label %48, label %52

48:                                               ; preds = %45
  %49 = load i64, ptr @H5E_SYM_g, align 8, !tbaa !10
  %50 = load i64, ptr @H5E_CANTFREE_g, align 8, !tbaa !10
  %51 = call i32 (ptr, ptr, i32, i64, i64, ptr, ...) @H5E_printf_stack(ptr noundef nonnull @.str, ptr noundef nonnull @__func__.H5G__compact_remove_by_idx, i32 noundef 346, i64 noundef %49, i64 noundef %50, ptr noundef nonnull @.str.4) #8
  br label %52

52:                                               ; preds = %42, %45, %48, %6
  %.0 = phi i32 [ -1, %48 ], [ %.1, %45 ], [ %.1, %42 ], [ 0, %6 ]
  call void @llvm.lifetime.end.p0(i64 24, ptr nonnull %8) #8
  call void @llvm.lifetime.end.p0(i64 16, ptr nonnull %7) #8
  ret i32 %.0
}